target datalayout = "e-m:e-p270:32:32-p271:32:32-p272:64:64-i64:64-i128:128-f80:128-n8:16:32:64-S128"
target triple = "x86_64-pc-linux-gnu"

%struct.H5G_loc_fbi_t = type { i32, i32, i64, ptr }

@H5G_init_g = external global i8, align 1
@H5_libterm_g = external global i8, align 1
@.str = private unnamed_addr constant [100 x i8] c"generated/home/dtcxzyw/WorkSpace/Projects/compilers/llvm-opt-benchmark/bench/hdf5/hdf5/src/H5Gloc.c\00", align 1
@H5E_FUNC_g = external global i64, align 8
@H5E_CANTINIT_g = external global i64, align 8
@.str.1 = private unnamed_addr constant [32 x i8] c"interface initialization failed\00", align 1
@H5E_SYM_g = external global i64, align 8
@H5E_NOTFOUND_g = external global i64, align 8
@.str.29 = private unnamed_addr constant [18 x i8] c"can't find object\00", align 1
@__func__.H5G_loc_find_by_idx = private unnamed_addr constant [20 x i8] c"H5G_loc_find_by_idx\00", align 1

; Function Attrs: nounwind uwtable
define i32 @H5G_loc_find_by_idx(ptr noundef %0, ptr noundef %1, i32 noundef %2, i32 noundef %3, i64 noundef %4, ptr noundef %5) #0 {
  %7 = alloca ptr, align 8
  %8 = alloca ptr, align 8
  %9 = alloca i32, align 4
  %10 = alloca i32, align 4
  %11 = alloca i64, align 8
  %12 = alloca ptr, align 8
  %13 = alloca %struct.H5G_loc_fbi_t, align 8
  %14 = alloca i32, align 4
  %15 = alloca i8, align 1
  store ptr %0, ptr %7, align 8, !tbaa !9
  store ptr %1, ptr %8, align 8, !tbaa !32
  store i32 %2, ptr %9, align 4, !tbaa !7
  store i32 %3, ptr %10, align 4, !tbaa !7
  store i64 %4, ptr %11, align 8, !tbaa !15
  store ptr %5, ptr %12, align 8, !tbaa !9
  call void @llvm.lifetime.start.p0(i64 24, ptr %13) #7
  call void @llvm.lifetime.start.p0(i64 4, ptr %14) #7
  store i32 0, ptr %14, align 4, !tbaa !7
  call void @llvm.lifetime.start.p0(i64 1, ptr %15) #7
  store i8 0, ptr %15, align 1, !tbaa !11
  %16 = load i8, ptr @H5G_init_g, align 1, !tbaa !11, !range !13, !noundef !14
  %17 = trunc i8 %16 to i1
  br i1 %17, label %22, label %18

18:                                               ; preds = %6
  %19 = load i8, ptr @H5_libterm_g, align 1, !tbaa !11, !range !13, !noundef !14
  %20 = trunc i8 %19 to i1
  %21 = xor i1 %20, true
  br label %22

22:                                               ; preds = %18, %6
  %23 = phi i1 [ false, %6 ], [ %21, %18 ]
  %24 = xor i1 %23, true
  %25 = xor i1 %24, true
  %26 = zext i1 %25 to i32
  %27 = sext i32 %26 to i64
  %28 = call i64 @llvm.expect.i64(i64 %27, i64 0)
  %29 = icmp ne i64 %28, 0
  br i1 %29, label %30, label %53

30:                                               ; preds = %22
  store i8 1, ptr @H5G_init_g, align 1, !tbaa !11
  %31 = call i32 @H5G__init_package()
  %32 = icmp slt i32 %31, 0
  br i1 %32, label %33, label %52

33:                                               ; preds = %30
  store i8 0, ptr @H5G_init_g, align 1, !tbaa !11
  br label %34

34:                                               ; preds = %33
  br label %35

35:                                               ; preds = %34
  br label %36

36:                                               ; preds = %35
  %37 = load i64, ptr @H5E_FUNC_g, align 8, !tbaa !15
  %38 = load i64, ptr @H5E_CANTINIT_g, align 8, !tbaa !15
  %39 = call i32 (ptr, ptr, i32, i64, i64, ptr, ...) @H5E_printf_stack(ptr noundef @.str, ptr noundef @__func__.H5G_loc_find_by_idx, i32 noundef 507, i64 noundef %37, i64 noundef %38, ptr noundef @.str.1)
  br label %40

40:                                               ; preds = %36
  br label %41

41:                                               ; preds = %40
  store i8 1, ptr %15, align 1, !tbaa !11
  %42 = load i8, ptr %15, align 1, !tbaa !11, !range !13, !noundef !14
  %43 = trunc i8 %42 to i1
  %44 = zext i1 %43 to i8
  store i8 %44, ptr %15, align 1, !tbaa !11
  br label %45

45:                                               ; preds = %41
  br label %46

46:                                               ; preds = %45
  br label %47

47:                                               ; preds = %46
  store i32 -1, ptr %14, align 4, !tbaa !7
  br label %101

48:                                               ; No predecessors!
  br label %49

49:                                               ; preds = %48
  br label %50

50:                                               ; preds = %49
  br label %51

51:                                               ; preds = %50
  br label %52

52:                                               ; preds = %51, %30
  br label %53

53:                                               ; preds = %52, %22
  %54 = load i8, ptr @H5G_init_g, align 1, !tbaa !11, !range !13, !noundef !14
  %55 = trunc i8 %54 to i1
  br i1 %55, label %60, label %56

56:                                               ; preds = %53
  %57 = load i8, ptr @H5_libterm_g, align 1, !tbaa !11, !range !13, !noundef !14
  %58 = trunc i8 %57 to i1
  %59 = xor i1 %58, true
  br label %60

60:                                               ; preds = %56, %53
  %61 = phi i1 [ true, %53 ], [ %59, %56 ]
  %62 = xor i1 %61, true
  %63 = xor i1 %62, true
  %64 = zext i1 %63 to i32
  %65 = sext i32 %64 to i64
  %66 = call i64 @llvm.expect.i64(i64 %65, i64 1)
  %67 = icmp ne i64 %66, 0
  br i1 %67, label %68, label %102

68:                                               ; preds = %60
  %69 = load i32, ptr %9, align 4, !tbaa !7
  %70 = getelementptr inbounds nuw %struct.H5G_loc_fbi_t, ptr %13, i32 0, i32 0
  store i32 %69, ptr %70, align 8, !tbaa !41
  %71 = load i32, ptr %10, align 4, !tbaa !7
  %72 = getelementptr inbounds nuw %struct.H5G_loc_fbi_t, ptr %13, i32 0, i32 1
  store i32 %71, ptr %72, align 4, !tbaa !43
  %73 = load i64, ptr %11, align 8, !tbaa !15
  %74 = getelementptr inbounds nuw %struct.H5G_loc_fbi_t, ptr %13, i32 0, i32 2
  store i64 %73, ptr %74, align 8, !tbaa !44
  %75 = load ptr, ptr %12, align 8, !tbaa !9
  %76 = getelementptr inbounds nuw %struct.H5G_loc_fbi_t, ptr %13, i32 0, i32 3
  store ptr %75, ptr %76, align 8, !tbaa !45
  %77 = load ptr, ptr %7, align 8, !tbaa !9
  %78 = load ptr, ptr %8, align 8, !tbaa !32
  %79 = call i32 @H5G_traverse(ptr noundef %77, ptr noundef %78, i32 noundef 0, ptr noundef @H5G__loc_find_by_idx_cb, ptr noundef %13)
  %80 = icmp slt i32 %79, 0
  br i1 %80, label %81, label %100

81:                                               ; preds = %68
  br label %82

82:                                               ; preds = %81
  br label %83

83:                                               ; preds = %82
  br label %84

84:                                               ; preds = %83
  %85 = load i64, ptr @H5E_SYM_g, align 8, !tbaa !15
  %86 = load i64, ptr @H5E_NOTFOUND_g, align 8, !tbaa !15
  %87 = call i32 (ptr, ptr, i32, i64, i64, ptr, ...) @H5E_printf_stack(ptr noundef @.str, ptr noundef @__func__.H5G_loc_find_by_idx, i32 noundef 522, i64 noundef %85, i64 noundef %86, ptr noundef @.str.29)
  br label %88

88:                                               ; preds = %84
  br label %89

89:                                               ; preds = %88
  store i8 1, ptr %15, align 1, !tbaa !11
  %90 = load i8, ptr %15, align 1, !tbaa !11, !range !13, !noundef !14
  %91 = trunc i8 %90 to i1
  %92 = zext i1 %91 to i8
  store i8 %92, ptr %15, align 1, !tbaa !11
  br label %93

93:                                               ; preds = %89
  br label %94

94:                                               ; preds = %93
  br label %95

95:                                               ; preds = %94
  store i32 -1, ptr %14, align 4, !tbaa !7
  br label %101

96:                                               ; No predecessors!
  br label %97

97:                                               ; preds = %96
  br label %98

98:                                               ; preds = %97
  br label %99

99:                                               ; preds = %98
  br label %100

100:                                              ; preds = %99, %68
  br label %101

101:                                              ; preds = %100, %95, %47
  br label %102

102:                                              ; preds = %101, %60
  %103 = load i32, ptr %14, align 4, !tbaa !7
  call void @llvm.lifetime.end.p0(i64 1, ptr %15) #7
  call void @llvm.lifetime.end.p0(i64 4, ptr %14) #7
  call void @llvm.lifetime.end.p0(i64 24, ptr %13) #7
  ret i32 %103
}