; Function Attrs: nounwind uwtable
define range(i32 -1, 1) i32 @H5G_loc_find_by_idx(ptr noundef %0, ptr noundef %1, i32 noundef %2, i32 noundef %3, i64 noundef %4, ptr noundef %5) local_unnamed_addr #0 {
  %7 = alloca %struct.H5G_loc_fbi_t, align 8
  call void @llvm.lifetime.start.p0(i64 24, ptr nonnull %7) #9
  %8 = load i8, ptr @H5G_init_g, align 1, !tbaa !3, !range !7, !noundef !8
  %9 = trunc nuw i8 %8 to i1
  %10 = load i8, ptr @H5_libterm_g, align 1, !range !7
  %11 = trunc nuw i8 %10 to i1
  %12 = select i1 %9, i1 true, i1 %11
  br i1 %12, label %20, label %13, !prof !9

13:                                               ; preds = %6
  store i8 1, ptr @H5G_init_g, align 1, !tbaa !3
  %14 = tail call i32 @H5G__init_package() #9
  %15 = icmp slt i32 %14, 0
  br i1 %15, label %16, label %._crit_edge

._crit_edge:                                      ; preds = %13
  %.pre = load i8, ptr @H5G_init_g, align 1, !tbaa !3, !range !7
  %.pre8 = load i8, ptr @H5_libterm_g, align 1, !range !7
  %.pre9 = trunc nuw i8 %.pre to i1
  %.pre10 = trunc nuw i8 %.pre8 to i1
  br label %20

16:                                               ; preds = %13
  store i8 0, ptr @H5G_init_g, align 1, !tbaa !3
  %17 = load i64, ptr @H5E_FUNC_g, align 8, !tbaa !10
  %18 = load i64, ptr @H5E_CANTINIT_g, align 8, !tbaa !10
  %19 = tail call i32 (ptr, ptr, i32, i64, i64, ptr, ...) @H5E_printf_stack(ptr noundef nonnull @.str, ptr noundef nonnull @__func__.H5G_loc_find_by_idx, i32 noundef 507, i64 noundef %17, i64 noundef %18, ptr noundef nonnull @.str.1) #9
  br label %33

20:                                               ; preds = %._crit_edge, %6
  %.pre-phi11 = phi i1 [ %.pre10, %._crit_edge ], [ %11, %6 ]
  %.pre-phi = phi i1 [ %.pre9, %._crit_edge ], [ %9, %6 ]
  %21 = xor i1 %.pre-phi11, true
  %22 = select i1 %.pre-phi, i1 true, i1 %21
  br i1 %22, label %23, label %33, !prof !9

23:                                               ; preds = %20
  store i32 %2, ptr %7, align 8, !tbaa !24
  %24 = getelementptr inbounds nuw i8, ptr %7, i64 4
  store i32 %3, ptr %24, align 4, !tbaa !26
  %25 = getelementptr inbounds nuw i8, ptr %7, i64 8
  store i64 %4, ptr %25, align 8, !tbaa !27
  %26 = getelementptr inbounds nuw i8, ptr %7, i64 16
  store ptr %5, ptr %26, align 8, !tbaa !28
  %27 = call i32 @H5G_traverse(ptr noundef %0, ptr noundef %1, i32 noundef 0, ptr noundef nonnull @H5G__loc_find_by_idx_cb, ptr noundef nonnull %7) #9
  %28 = icmp slt i32 %27, 0
  br i1 %28, label %29, label %33

29:                                               ; preds = %23
  %30 = load i64, ptr @H5E_SYM_g, align 8, !tbaa !10
  %31 = load i64, ptr @H5E_NOTFOUND_g, align 8, !tbaa !10
  %32 = call i32 (ptr, ptr, i32, i64, i64, ptr, ...) @H5E_printf_stack(ptr noundef nonnull @.str, ptr noundef nonnull @__func__.H5G_loc_find_by_idx, i32 noundef 522, i64 noundef %30, i64 noundef %31, ptr noundef nonnull @.str.29) #9
  br label %33

33:                                               ; preds = %16, %29, %23, %20
  %.0 = phi i32 [ -1, %16 ], [ -1, %29 ], [ 0, %23 ], [ 0, %20 ]
  call void @llvm.lifetime.end.p0(i64 24, ptr nonnull %7) #9
  ret i32 %.0
}